target datalayout = "e-m:e-p270:32:32-p271:32:32-p272:64:64-i64:64-i128:128-f80:128-n8:16:32:64-S128"
target triple = "x86_64-pc-linux-gnu"

%class.InterfaceTreeModel = type { %class.QAbstractTableModel, %class.QMap, %class.QMap.0 }
%class.QAbstractTableModel = type { %class.QAbstractItemModel }
%class.QAbstractItemModel = type { %class.QObject }
%class.QObject = type { ptr, %class.QScopedPointer }
%class.QScopedPointer = type { ptr }
%class.QMap = type { %"class.QtPrivate::QExplicitlySharedDataPointerV2" }
%"class.QtPrivate::QExplicitlySharedDataPointerV2" = type { ptr }
%class.QMap.0 = type { %"class.QtPrivate::QExplicitlySharedDataPointerV2.1" }
%"class.QtPrivate::QExplicitlySharedDataPointerV2.1" = type { ptr }

; Function Attrs: mustprogress uwtable
define void @_ZN18InterfaceTreeModel20interfaceListChangedEv(ptr noundef nonnull align 8 dereferenceable(32) %0) #1 align 2 {
  %2 = alloca ptr, align 8
  store ptr %0, ptr %2, align 8
  %3 = load ptr, ptr %2, align 8
  call void @_ZN18QAbstractItemModel15beginResetModelEv(ptr noundef nonnull align 8 dereferenceable(16) %3)
  %4 = getelementptr inbounds %class.InterfaceTreeModel, ptr %3, i32 0, i32 1
  call void @_ZN4QMapI7QString5QListIiEE5clearEv(ptr noundef nonnull align 8 dereferenceable(8) %4)
  %5 = getelementptr inbounds %class.InterfaceTreeModel, ptr %3, i32 0, i32 2
  call void @_ZN4QMapI7QStringbE5clearEv(ptr noundef nonnull align 8 dereferenceable(8) %5)
  call void @_ZN18QAbstractItemModel13endResetModelEv(ptr noundef nonnull align 8 dereferenceable(16) %3)
  ret void
}