; Function Attrs: mustprogress uwtable
define void @_ZN18InterfaceTreeModel20interfaceListChangedEv(ptr noundef nonnull align 8 dereferenceable(32) %0) #2 align 2 {
  tail call void @_ZN18QAbstractItemModel15beginResetModelEv(ptr noundef nonnull align 8 dereferenceable(16) %0)
  %2 = getelementptr inbounds i8, ptr %0, i64 16
  tail call void @_ZN4QMapI7QString5QListIiEE5clearEv(ptr noundef nonnull align 8 dereferenceable(8) %2)
  %3 = getelementptr inbounds i8, ptr %0, i64 24
  tail call void @_ZN4QMapI7QStringbE5clearEv(ptr noundef nonnull align 8 dereferenceable(8) %3)
  tail call void @_ZN18QAbstractItemModel13endResetModelEv(ptr noundef nonnull align 8 dereferenceable(16) %0)
  ret void
}